; Function Attrs: mustprogress uwtable
define hidden void @_ZN6Assimp19Discreet3DSExporter11WriteStringERKNSt7__cxx1112basic_stringIcSt11char_traitsIcESaIcEEE(ptr noundef nonnull align 8 dereferenceable(160) %0, ptr noundef nonnull readonly align 8 captures(none) dereferenceable(32) %1) local_unnamed_addr #0 align 2 {
  %3 = getelementptr inbounds nuw i8, ptr %1, i64 8
  %4 = load i64, ptr %3, align 8
  %.not10 = icmp samesign eq i64 %4, 0
  br i1 %.not10, label %.._crit_edge_crit_edge, label %.lr.ph

.._crit_edge_crit_edge:                           ; preds = %2
  %.phi.trans.insert = getelementptr inbounds nuw i8, ptr %0, i64 56
  %.pre12 = load i64, ptr %.phi.trans.insert, align 8
  br label %._crit_edge

.lr.ph:                                           ; preds = %2
  %5 = load ptr, ptr %1, align 8
  %6 = getelementptr inbounds nuw i8, ptr %0, i64 56
  %7 = getelementptr inbounds nuw i8, ptr %0, i64 32
  %8 = getelementptr inbounds nuw i8, ptr %0, i64 40
  %.pre = load i64, ptr %6, align 8
  br label %25

._crit_edge:                                      ; preds = %_ZN6Assimp12StreamWriterILb0ELb0EE5PutI1Ea.exit6, %.._crit_edge_crit_edge
  %9 = phi i64 [ %.pre12, %.._crit_edge_crit_edge ], [ %39, %_ZN6Assimp12StreamWriterILb0ELb0EE5PutI1Ea.exit6 ]
  %10 = getelementptr inbounds nuw i8, ptr %0, i64 56
  %11 = add i64 %9, 1
  %12 = getelementptr inbounds nuw i8, ptr %0, i64 32
  %13 = getelementptr inbounds nuw i8, ptr %0, i64 40
  %14 = load ptr, ptr %13, align 8
  %15 = load ptr, ptr %12, align 8
  %16 = ptrtoint ptr %14 to i64
  %17 = ptrtoint ptr %15 to i64
  %18 = sub i64 %16, %17
  %.not.i.i = icmp ult i64 %11, %18
  br i1 %.not.i.i, label %_ZN6Assimp12StreamWriterILb0ELb0EE5PutI1Ea.exit, label %19

19:                                               ; preds = %._crit_edge
  tail call void @_ZNSt6vectorIhSaIhEE6resizeEm(ptr noundef nonnull align 8 dereferenceable(24) %12, i64 noundef %11)
  %.pre.i.i = load i64, ptr %10, align 8
  %.pre2.i.i = load ptr, ptr %12, align 8
  br label %_ZN6Assimp12StreamWriterILb0ELb0EE5PutI1Ea.exit

_ZN6Assimp12StreamWriterILb0ELb0EE5PutI1Ea.exit:  ; preds = %._crit_edge, %19
  %20 = phi ptr [ %.pre2.i.i, %19 ], [ %15, %._crit_edge ]
  %21 = phi i64 [ %.pre.i.i, %19 ], [ %9, %._crit_edge ]
  %22 = getelementptr inbounds nuw i8, ptr %20, i64 %21
  store i8 0, ptr %22, align 1
  %23 = load i64, ptr %10, align 8
  %24 = add i64 %23, 1
  store i64 %24, ptr %10, align 8
  ret void

25:                                               ; preds = %.lr.ph, %_ZN6Assimp12StreamWriterILb0ELb0EE5PutI1Ea.exit6
  %26 = phi i64 [ %.pre, %.lr.ph ], [ %39, %_ZN6Assimp12StreamWriterILb0ELb0EE5PutI1Ea.exit6 ]
  %.sroa.07.011 = phi ptr [ %5, %.lr.ph ], [ %40, %_ZN6Assimp12StreamWriterILb0ELb0EE5PutI1Ea.exit6 ]
  %27 = load i8, ptr %.sroa.07.011, align 1
  %28 = add i64 %26, 1
  %29 = load ptr, ptr %8, align 8
  %30 = load ptr, ptr %7, align 8
  %31 = ptrtoint ptr %29 to i64
  %32 = ptrtoint ptr %30 to i64
  %33 = sub i64 %31, %32
  %.not.i.i3 = icmp ult i64 %28, %33
  br i1 %.not.i.i3, label %_ZN6Assimp12StreamWriterILb0ELb0EE5PutI1Ea.exit6, label %34

34:                                               ; preds = %25
  tail call void @_ZNSt6vectorIhSaIhEE6resizeEm(ptr noundef nonnull align 8 dereferenceable(24) %7, i64 noundef %28)
  %.pre.i.i4 = load i64, ptr %6, align 8
  %.pre2.i.i5 = load ptr, ptr %7, align 8
  br label %_ZN6Assimp12StreamWriterILb0ELb0EE5PutI1Ea.exit6

_ZN6Assimp12StreamWriterILb0ELb0EE5PutI1Ea.exit6: ; preds = %25, %34
  %35 = phi ptr [ %.pre2.i.i5, %34 ], [ %30, %25 ]
  %36 = phi i64 [ %.pre.i.i4, %34 ], [ %26, %25 ]
  %37 = getelementptr inbounds nuw i8, ptr %35, i64 %36
  store i8 %27, ptr %37, align 1
  %38 = load i64, ptr %6, align 8
  %39 = add i64 %38, 1
  store i64 %39, ptr %6, align 8
  %40 = getelementptr inbounds nuw i8, ptr %.sroa.07.011, i64 1
  %41 = load ptr, ptr %1, align 8
  %42 = load i64, ptr %3, align 8
  %43 = getelementptr inbounds nuw i8, ptr %41, i64 %42
  %.not = icmp eq ptr %40, %43
  br i1 %.not, label %._crit_edge, label %25, !llvm.loop !10
}